; Function Attrs: mustprogress nounwind uwtable
define hidden noundef zeroext i1 @_ZN7oopDesc6is_oopEPS_b(ptr noundef %0, i1 noundef zeroext %1) local_unnamed_addr #0 align 2 {
  %3 = load ptr, ptr @_ZN8Universe14_collectedHeapE, align 8
  %4 = load ptr, ptr %3, align 8
  %5 = getelementptr inbounds i8, ptr %4, i64 456
  %6 = load ptr, ptr %5, align 8
  %7 = tail call noundef zeroext i1 %6(ptr noundef nonnull align 8 dereferenceable(104) %3, ptr noundef %0) #11
  %.not3 = xor i1 %7, true
  %brmerge = or i1 %.not3, %1
  br i1 %brmerge, label %15, label %8

8:                                                ; preds = %2
  %9 = load volatile i64, ptr %0, align 8
  %.not = icmp ne i64 %9, 0
  %10 = load i32, ptr @LockingMode, align 4
  %11 = icmp eq i32 %10, 2
  %or.cond = select i1 %.not, i1 true, i1 %11
  br i1 %or.cond, label %15, label %12

12:                                               ; preds = %8
  %13 = load volatile i32, ptr @_ZN20SafepointSynchronize6_stateE, align 4
  %14 = icmp ne i32 %13, 2
  br label %15

15:                                               ; preds = %2, %12, %8
  %.0 = phi i1 [ %7, %2 ], [ true, %8 ], [ %14, %12 ]
  ret i1 %.0
}